; Function Attrs: nounwind uwtable
define internal noundef i32 @arenas_dirty_decay_ms_ctl(ptr nocapture readnone %tsd, ptr nocapture readnone %mib, i64 %miblen, ptr noundef writeonly %oldp, ptr noundef %oldlenp, ptr noundef readonly %newp, i64 noundef %newlen) #0 {
entry:
  %oldval.i = alloca i64, align 8
  call void @llvm.lifetime.start.p0(i64 8, ptr nonnull %oldval.i)
  %cmp.i = icmp ne ptr %oldp, null
  %cmp1.i = icmp ne ptr %oldlenp, null
  %or.cond.i = and i1 %cmp.i, %cmp1.i
  br i1 %or.cond.i, label %if.then.i, label %if.end15.i

if.then.i:                                        ; preds = %entry
  %call.i = tail call i64 @arena_dirty_decay_ms_default_get() #14
  store i64 %call.i, ptr %oldval.i, align 8
  %0 = load i64, ptr %oldlenp, align 8
  %cmp7.not.i = icmp eq i64 %0, 8
  br i1 %cmp7.not.i, label %if.end.i, label %if.then8.i

if.then8.i:                                       ; preds = %if.then.i
  %spec.select.i = tail call i64 @llvm.umin.i64(i64 %0, i64 8)
  call void @llvm.memcpy.p0.p0.i64(ptr nonnull align 1 %oldp, ptr nonnull align 8 %oldval.i, i64 %spec.select.i, i1 false)
  store i64 %spec.select.i, ptr %oldlenp, align 8
  br label %arenas_decay_ms_ctl_impl.exit

if.end.i:                                         ; preds = %if.then.i
  store i64 %call.i, ptr %oldp, align 8
  br label %if.end15.i

if.end15.i:                                       ; preds = %if.end.i, %entry
  %cmp16.not.i = icmp eq ptr %newp, null
  br i1 %cmp16.not.i, label %if.end28.i, label %if.then17.i

if.then17.i:                                      ; preds = %if.end15.i
  %cmp18.not.i = icmp eq i64 %newlen, 8
  br i1 %cmp18.not.i, label %if.end20.i, label %arenas_decay_ms_ctl_impl.exit

if.end20.i:                                       ; preds = %if.then17.i
  %1 = load i64, ptr %newp, align 8
  %call23.i = tail call zeroext i1 @arena_dirty_decay_ms_default_set(i64 noundef %1) #14
  br i1 %call23.i, label %arenas_decay_ms_ctl_impl.exit, label %if.end28.i

if.end28.i:                                       ; preds = %if.end20.i, %if.end15.i
  br label %arenas_decay_ms_ctl_impl.exit

arenas_decay_ms_ctl_impl.exit:                    ; preds = %if.then8.i, %if.then17.i, %if.end20.i, %if.end28.i
  %ret.0.i = phi i32 [ 22, %if.then8.i ], [ 0, %if.end28.i ], [ 22, %if.then17.i ], [ 14, %if.end20.i ]
  call void @llvm.lifetime.end.p0(i64 8, ptr nonnull %oldval.i)
  ret i32 %ret.0.i
}